target datalayout = "e-m:e-p270:32:32-p271:32:32-p272:64:64-i64:64-i128:128-f80:128-n8:16:32:64-S128"
target triple = "x86_64-unknown-linux-gnu"

%"class.absl::crc_internal::CRC32" = type { %"class.absl::crc_internal::CRCImpl", [256 x i32], [256 x i32], [4 x [256 x i32]], [256 x i32], [256 x i32] }
%"class.absl::crc_internal::CRCImpl" = type { %"class.absl::crc_internal::CRC" }
%"class.absl::crc_internal::CRC" = type { ptr }

; Function Attrs: mustprogress nounwind uwtable
define linkonce_odr dso_local noundef i32 @_ZN4absl9gbswap_32Ej(i32 noundef %host_int) #0 comdat {
entry:
  %host_int.addr = alloca i32, align 4
  store i32 %host_int, ptr %host_int.addr, align 4
  %0 = load i32, ptr %host_int.addr, align 4
  %1 = call i32 @llvm.bswap.i32(i32 %0)
  ret i32 %1
}

; Function Attrs: mustprogress nounwind uwtable
define dso_local void @_ZN4absl12crc_internal5CRC3218ExtendByZeroesImplEPjmPKjS4_(ptr noundef %crc, i64 noundef %length, ptr noundef %zeroes_table, ptr noundef %poly_table) #0 align 2 {
entry:
  %crc.addr = alloca ptr, align 8
  %length.addr = alloca i64, align 8
  %zeroes_table.addr = alloca ptr, align 8
  %poly_table.addr = alloca ptr, align 8
  %l = alloca i32, align 4
  %i = alloca i32, align 4
  %c = alloca i32, align 4
  %m = alloca i64, align 8
  %m2 = alloca i64, align 8
  %mtab = alloca [4 x i64], align 16
  %result = alloca i64, align 8
  %x = alloca i32, align 4
  store ptr %crc, ptr %crc.addr, align 8
  store i64 %length, ptr %length.addr, align 8
  store ptr %zeroes_table, ptr %zeroes_table.addr, align 8
  store ptr %poly_table, ptr %poly_table.addr, align 8
  %0 = load i64, ptr %length.addr, align 8
  %cmp = icmp ne i64 %0, 0
  br i1 %cmp, label %if.then, label %if.end44

if.then:                                          ; preds = %entry
  %1 = load ptr, ptr %crc.addr, align 8
  %2 = load i32, ptr %1, align 4
  store i32 %2, ptr %l, align 4
  store i32 0, ptr %i, align 4
  br label %for.cond

for.cond:                                         ; preds = %for.inc40, %if.then
  %3 = load i64, ptr %length.addr, align 8
  %cmp1 = icmp ne i64 %3, 0
  br i1 %cmp1, label %for.body, label %for.end43

for.body:                                         ; preds = %for.cond
  %4 = load i64, ptr %length.addr, align 8
  %and = and i64 %4, 15
  %conv = trunc i64 %and to i32
  store i32 %conv, ptr %c, align 4
  %5 = load i32, ptr %c, align 4
  %cmp2 = icmp ne i32 %5, 0
  br i1 %cmp2, label %if.then3, label %if.end

if.then3:                                         ; preds = %for.body
  %6 = load ptr, ptr %zeroes_table.addr, align 8
  %7 = load i32, ptr %c, align 4
  %8 = load i32, ptr %i, align 4
  %add = add nsw i32 %7, %8
  %sub = sub nsw i32 %add, 1
  %idxprom = sext i32 %sub to i64
  %arrayidx = getelementptr inbounds i32, ptr %6, i64 %idxprom
  %9 = load i32, ptr %arrayidx, align 4
  %conv4 = zext i32 %9 to i64
  store i64 %conv4, ptr %m, align 8
  %10 = load i64, ptr %m, align 8
  %shl = shl i64 %10, 1
  store i64 %shl, ptr %m, align 8
  %11 = load i64, ptr %m, align 8
  %shl5 = shl i64 %11, 1
  store i64 %shl5, ptr %m2, align 8
  %arrayinit.begin = getelementptr inbounds [4 x i64], ptr %mtab, i64 0, i64 0
  store i64 0, ptr %arrayinit.begin, align 8
  %arrayinit.element = getelementptr inbounds i64, ptr %arrayinit.begin, i64 1
  %12 = load i64, ptr %m, align 8
  store i64 %12, ptr %arrayinit.element, align 8
  %arrayinit.element6 = getelementptr inbounds i64, ptr %arrayinit.element, i64 1
  %13 = load i64, ptr %m2, align 8
  store i64 %13, ptr %arrayinit.element6, align 8
  %arrayinit.element7 = getelementptr inbounds i64, ptr %arrayinit.element6, i64 1
  %14 = load i64, ptr %m2, align 8
  %15 = load i64, ptr %m, align 8
  %xor = xor i64 %14, %15
  store i64 %xor, ptr %arrayinit.element7, align 8
  store i64 0, ptr %result, align 8
  store i32 0, ptr %x, align 4
  br label %for.cond8

for.cond8:                                        ; preds = %for.inc, %if.then3
  %16 = load i32, ptr %x, align 4
  %cmp9 = icmp slt i32 %16, 32
  br i1 %cmp9, label %for.body10, label %for.end

for.body10:                                       ; preds = %for.cond8
  %17 = load i32, ptr %l, align 4
  %and11 = and i32 %17, 3
  %idxprom12 = zext i32 %and11 to i64
  %arrayidx13 = getelementptr inbounds [4 x i64], ptr %mtab, i64 0, i64 %idxprom12
  %18 = load i64, ptr %arrayidx13, align 8
  %19 = load i32, ptr %l, align 4
  %shr = lshr i32 %19, 2
  %and14 = and i32 %shr, 3
  %idxprom15 = zext i32 %and14 to i64
  %arrayidx16 = getelementptr inbounds [4 x i64], ptr %mtab, i64 0, i64 %idxprom15
  %20 = load i64, ptr %arrayidx16, align 8
  %shl17 = shl i64 %20, 2
  %xor18 = xor i64 %18, %shl17
  %21 = load i32, ptr %l, align 4
  %shr19 = lshr i32 %21, 4
  %and20 = and i32 %shr19, 3
  %idxprom21 = zext i32 %and20 to i64
  %arrayidx22 = getelementptr inbounds [4 x i64], ptr %mtab, i64 0, i64 %idxprom21
  %22 = load i64, ptr %arrayidx22, align 8
  %shl23 = shl i64 %22, 4
  %xor24 = xor i64 %xor18, %shl23
  %23 = load i32, ptr %l, align 4
  %shr25 = lshr i32 %23, 6
  %and26 = and i32 %shr25, 3
  %idxprom27 = zext i32 %and26 to i64
  %arrayidx28 = getelementptr inbounds [4 x i64], ptr %mtab, i64 0, i64 %idxprom27
  %24 = load i64, ptr %arrayidx28, align 8
  %shl29 = shl i64 %24, 6
  %xor30 = xor i64 %xor24, %shl29
  %25 = load i64, ptr %result, align 8
  %xor31 = xor i64 %25, %xor30
  store i64 %xor31, ptr %result, align 8
  %26 = load i32, ptr %l, align 4
  %shr32 = lshr i32 %26, 8
  store i32 %shr32, ptr %l, align 4
  %27 = load i64, ptr %result, align 8
  %shr33 = lshr i64 %27, 8
  %28 = load ptr, ptr %poly_table.addr, align 8
  %29 = load i64, ptr %result, align 8
  %and34 = and i64 %29, 255
  %arrayidx35 = getelementptr inbounds i32, ptr %28, i64 %and34
  %30 = load i32, ptr %arrayidx35, align 4
  %conv36 = zext i32 %30 to i64
  %xor37 = xor i64 %shr33, %conv36
  store i64 %xor37, ptr %result, align 8
  br label %for.inc

for.inc:                                          ; preds = %for.body10
  %31 = load i32, ptr %x, align 4
  %add38 = add nsw i32 %31, 8
  store i32 %add38, ptr %x, align 4
  br label %for.cond8, !llvm.loop !24

for.end:                                          ; preds = %for.cond8
  %32 = load i64, ptr %result, align 8
  %conv39 = trunc i64 %32 to i32
  store i32 %conv39, ptr %l, align 4
  br label %if.end

if.end:                                           ; preds = %for.end, %for.body
  br label %for.inc40

for.inc40:                                        ; preds = %if.end
  %33 = load i32, ptr %i, align 4
  %add41 = add nsw i32 %33, 15
  store i32 %add41, ptr %i, align 4
  %34 = load i64, ptr %length.addr, align 8
  %shr42 = lshr i64 %34, 4
  store i64 %shr42, ptr %length.addr, align 8
  br label %for.cond, !llvm.loop !25

for.end43:                                        ; preds = %for.cond
  %35 = load i32, ptr %l, align 4
  %36 = load ptr, ptr %crc.addr, align 8
  store i32 %35, ptr %36, align 4
  br label %if.end44

if.end44:                                         ; preds = %for.end43, %entry
  ret void
}

; Function Attrs: mustprogress uwtable
define internal noundef i32 @_ZN4absl12crc_internal12_GLOBAL__N_111ReverseBitsEj(i32 noundef %bits) #1 {
entry:
  %bits.addr = alloca i32, align 4
  store i32 %bits, ptr %bits.addr, align 4
  %0 = load i32, ptr %bits.addr, align 4
  %and = and i32 %0, -1431655766
  %shr = lshr i32 %and, 1
  %1 = load i32, ptr %bits.addr, align 4
  %and1 = and i32 %1, 1431655765
  %shl = shl i32 %and1, 1
  %or = or i32 %shr, %shl
  store i32 %or, ptr %bits.addr, align 4
  %2 = load i32, ptr %bits.addr, align 4
  %and2 = and i32 %2, -858993460
  %shr3 = lshr i32 %and2, 2
  %3 = load i32, ptr %bits.addr, align 4
  %and4 = and i32 %3, 858993459
  %shl5 = shl i32 %and4, 2
  %or6 = or i32 %shr3, %shl5
  store i32 %or6, ptr %bits.addr, align 4
  %4 = load i32, ptr %bits.addr, align 4
  %and7 = and i32 %4, -252645136
  %shr8 = lshr i32 %and7, 4
  %5 = load i32, ptr %bits.addr, align 4
  %and9 = and i32 %5, 252645135
  %shl10 = shl i32 %and9, 4
  %or11 = or i32 %shr8, %shl10
  store i32 %or11, ptr %bits.addr, align 4
  %6 = load i32, ptr %bits.addr, align 4
  %call = call noundef i32 @_ZN4absl9gbswap_32Ej(i32 noundef %6)
  ret i32 %call
}

; Function Attrs: mustprogress uwtable
define dso_local void @_ZNK4absl12crc_internal5CRC3216UnextendByZeroesEPjm(ptr noundef nonnull align 8 dereferenceable(8200) %this, ptr noundef %crc, i64 noundef %length) unnamed_addr #1 align 2 {
entry:
  %this.addr = alloca ptr, align 8
  %crc.addr = alloca ptr, align 8
  %length.addr = alloca i64, align 8
  store ptr %this, ptr %this.addr, align 8
  store ptr %crc, ptr %crc.addr, align 8
  store i64 %length, ptr %length.addr, align 8
  %this1 = load ptr, ptr %this.addr, align 8
  %0 = load ptr, ptr %crc.addr, align 8
  %1 = load i32, ptr %0, align 4
  %call = call noundef i32 @_ZN4absl12crc_internal12_GLOBAL__N_111ReverseBitsEj(i32 noundef %1)
  %2 = load ptr, ptr %crc.addr, align 8
  store i32 %call, ptr %2, align 4
  %3 = load ptr, ptr %crc.addr, align 8
  %4 = load i64, ptr %length.addr, align 8
  %reverse_zeroes_ = getelementptr inbounds %"class.absl::crc_internal::CRC32", ptr %this1, i32 0, i32 5
  %arraydecay = getelementptr inbounds [256 x i32], ptr %reverse_zeroes_, i64 0, i64 0
  %reverse_table0_ = getelementptr inbounds %"class.absl::crc_internal::CRC32", ptr %this1, i32 0, i32 4
  %arraydecay2 = getelementptr inbounds [256 x i32], ptr %reverse_table0_, i64 0, i64 0
  call void @_ZN4absl12crc_internal5CRC3218ExtendByZeroesImplEPjmPKjS4_(ptr noundef %3, i64 noundef %4, ptr noundef %arraydecay, ptr noundef %arraydecay2)
  %5 = load ptr, ptr %crc.addr, align 8
  %6 = load i32, ptr %5, align 4
  %call3 = call noundef i32 @_ZN4absl12crc_internal12_GLOBAL__N_111ReverseBitsEj(i32 noundef %6)
  %7 = load ptr, ptr %crc.addr, align 8
  store i32 %call3, ptr %7, align 4
  ret void
}