; Function Attrs: mustprogress nofree norecurse nosync nounwind memory(argmem: readwrite) uwtable
define dso_local void @_ZNK4absl12crc_internal5CRC3216UnextendByZeroesEPjm(ptr nocapture noundef nonnull readonly align 8 dereferenceable(8200) %this, ptr nocapture noundef %crc, i64 noundef %length) unnamed_addr #7 align 2 {
entry:
  %mtab.i = alloca [4 x i64], align 16
  %0 = load i32, ptr %crc, align 4
  %1 = tail call noundef i32 @llvm.bitreverse.i32(i32 %0)
  store i32 %1, ptr %crc, align 4
  %reverse_table0_ = getelementptr inbounds i8, ptr %this, i64 6152
  call void @llvm.lifetime.start.p0(i64 32, ptr nonnull %mtab.i)
  %cmp.not.i = icmp eq i64 %length, 0
  br i1 %cmp.not.i, label %_ZN4absl12crc_internal5CRC3218ExtendByZeroesImplEPjmPKjS4_.exit, label %if.then.i

if.then.i:                                        ; preds = %entry
  %invariant.gep.i = getelementptr inbounds i8, ptr %this, i64 7172
  %arrayinit.element.i = getelementptr inbounds i8, ptr %mtab.i, i64 8
  %arrayinit.element6.i = getelementptr inbounds i8, ptr %mtab.i, i64 16
  %arrayinit.element7.i = getelementptr inbounds i8, ptr %mtab.i, i64 24
  br label %for.body.i

for.body.i:                                       ; preds = %for.inc40.i, %if.then.i
  %length.addr.025.i = phi i64 [ %length, %if.then.i ], [ %shr42.i, %for.inc40.i ]
  %l.024.i = phi i32 [ %1, %if.then.i ], [ %l.2.i, %for.inc40.i ]
  %i.023.i = phi i32 [ 0, %if.then.i ], [ %add41.i, %for.inc40.i ]
  %2 = trunc i64 %length.addr.025.i to i32
  %conv.i = and i32 %2, 15
  %cmp2.not.i = icmp eq i32 %conv.i, 0
  br i1 %cmp2.not.i, label %for.inc40.i, label %if.then3.i

if.then3.i:                                       ; preds = %for.body.i
  %add.i = add nuw nsw i32 %conv.i, %i.023.i
  %3 = zext nneg i32 %add.i to i64
  %gep.i = getelementptr i32, ptr %invariant.gep.i, i64 %3
  %4 = load i32, ptr %gep.i, align 4
  %conv4.i = zext i32 %4 to i64
  %shl.i = shl nuw nsw i64 %conv4.i, 1
  %shl5.i = shl nuw nsw i64 %conv4.i, 2
  store i64 0, ptr %mtab.i, align 16
  store i64 %shl.i, ptr %arrayinit.element.i, align 8
  store i64 %shl5.i, ptr %arrayinit.element6.i, align 16
  %xor.i = xor i64 %shl5.i, %shl.i
  store i64 %xor.i, ptr %arrayinit.element7.i, align 8
  br label %for.body10.i

for.body10.i:                                     ; preds = %for.body10.i, %if.then3.i
  %x.022.i = phi i32 [ 0, %if.then3.i ], [ %add38.i, %for.body10.i ]
  %result.021.i = phi i64 [ 0, %if.then3.i ], [ %xor37.i, %for.body10.i ]
  %l.120.i = phi i32 [ %l.024.i, %if.then3.i ], [ %shr32.i, %for.body10.i ]
  %and11.i = and i32 %l.120.i, 3
  %idxprom12.i = zext nneg i32 %and11.i to i64
  %arrayidx13.i = getelementptr inbounds [4 x i64], ptr %mtab.i, i64 0, i64 %idxprom12.i
  %5 = load i64, ptr %arrayidx13.i, align 8
  %shr.i = lshr i32 %l.120.i, 2
  %and14.i = and i32 %shr.i, 3
  %idxprom15.i = zext nneg i32 %and14.i to i64
  %arrayidx16.i = getelementptr inbounds [4 x i64], ptr %mtab.i, i64 0, i64 %idxprom15.i
  %6 = load i64, ptr %arrayidx16.i, align 8
  %shl17.i = shl i64 %6, 2
  %shr19.i = lshr i32 %l.120.i, 4
  %and20.i = and i32 %shr19.i, 3
  %idxprom21.i = zext nneg i32 %and20.i to i64
  %arrayidx22.i = getelementptr inbounds [4 x i64], ptr %mtab.i, i64 0, i64 %idxprom21.i
  %7 = load i64, ptr %arrayidx22.i, align 8
  %shl23.i = shl i64 %7, 4
  %shr25.i = lshr i32 %l.120.i, 6
  %and26.i = and i32 %shr25.i, 3
  %idxprom27.i = zext nneg i32 %and26.i to i64
  %arrayidx28.i = getelementptr inbounds [4 x i64], ptr %mtab.i, i64 0, i64 %idxprom27.i
  %8 = load i64, ptr %arrayidx28.i, align 8
  %shl29.i = shl i64 %8, 6
  %xor18.i = xor i64 %5, %result.021.i
  %xor24.i = xor i64 %xor18.i, %shl17.i
  %xor30.i = xor i64 %xor24.i, %shl23.i
  %xor31.i = xor i64 %xor30.i, %shl29.i
  %shr32.i = lshr i32 %l.120.i, 8
  %shr33.i = lshr i64 %xor31.i, 8
  %and34.i = and i64 %xor31.i, 255
  %arrayidx35.i = getelementptr inbounds i32, ptr %reverse_table0_, i64 %and34.i
  %9 = load i32, ptr %arrayidx35.i, align 4
  %conv36.i = zext i32 %9 to i64
  %xor37.i = xor i64 %shr33.i, %conv36.i
  %add38.i = add nuw nsw i32 %x.022.i, 8
  %cmp9.i = icmp ult i32 %x.022.i, 24
  br i1 %cmp9.i, label %for.body10.i, label %for.end.i, !llvm.loop !20

for.end.i:                                        ; preds = %for.body10.i
  %conv39.i = trunc i64 %xor37.i to i32
  br label %for.inc40.i

for.inc40.i:                                      ; preds = %for.end.i, %for.body.i
  %l.2.i = phi i32 [ %conv39.i, %for.end.i ], [ %l.024.i, %for.body.i ]
  %add41.i = add nuw nsw i32 %i.023.i, 15
  %shr42.i = lshr i64 %length.addr.025.i, 4
  %cmp1.not.i = icmp ult i64 %length.addr.025.i, 16
  br i1 %cmp1.not.i, label %_ZN4absl12crc_internal5CRC3218ExtendByZeroesImplEPjmPKjS4_.exit, label %for.body.i, !llvm.loop !21

_ZN4absl12crc_internal5CRC3218ExtendByZeroesImplEPjmPKjS4_.exit: ; preds = %for.inc40.i, %entry
  %10 = phi i32 [ %1, %entry ], [ %l.2.i, %for.inc40.i ]
  call void @llvm.lifetime.end.p0(i64 32, ptr nonnull %mtab.i)
  %11 = tail call noundef i32 @llvm.bitreverse.i32(i32 %10)
  store i32 %11, ptr %crc, align 4
  ret void
}